target datalayout = "e-m:e-p270:32:32-p271:32:32-p272:64:64-i64:64-i128:128-f80:128-n8:16:32:64-S128"
target triple = "x86_64-pc-linux-gnu"

%struct._stat_data_t = type { ptr, ptr }
%class.QTreeWidgetItem = type <{ ptr, i32, [4 x i8], %class.QList.9, ptr, ptr, ptr, %class.QList.13, %class.QFlags, [4 x i8] }>
%class.QList.9 = type { %struct.QArrayDataPointer.12 }
%struct.QArrayDataPointer.12 = type { ptr, ptr, i64 }
%class.QList.13 = type { %struct.QArrayDataPointer.16 }
%struct.QArrayDataPointer.16 = type { ptr, ptr, i64 }
%class.QFlags = type { i32 }
%class.QTreeWidgetItemIterator = type <{ %class.QScopedPointer.17, ptr, %class.QFlags.18, [4 x i8] }>
%class.QScopedPointer.17 = type { ptr }
%class.QFlags.18 = type { i32 }

; Function Attrs: inlinehint mustprogress nounwind null_pointer_is_valid sspstrong uwtable
define linkonce_odr noundef i32 @_ZNK15QTreeWidgetItem4typeEv(ptr noundef align 8 dereferenceable_or_null(92) %0) #6 comdat align 2 {
  %2 = alloca ptr, align 8
  store ptr %0, ptr %2, align 8
  %3 = load ptr, ptr %2, align 8
  %4 = getelementptr inbounds nuw %class.QTreeWidgetItem, ptr %3, i32 0, i32 1
  %5 = load i32, ptr %4, align 8
  ret i32 %5
}

; Function Attrs: inlinehint mustprogress nounwind null_pointer_is_valid sspstrong uwtable
define linkonce_odr noundef ptr @_ZNK23QTreeWidgetItemIteratordeEv(ptr noundef align 8 dereferenceable_or_null(20) %0) #6 comdat align 2 {
  %2 = alloca ptr, align 8
  store ptr %0, ptr %2, align 8
  %3 = load ptr, ptr %2, align 8
  %4 = getelementptr inbounds nuw %class.QTreeWidgetItemIterator, ptr %3, i32 0, i32 1
  %5 = load ptr, ptr %4, align 8
  ret ptr %5
}

; Function Attrs: inlinehint mustprogress nounwind null_pointer_is_valid sspstrong uwtable
define linkonce_odr void @_ZN6QFlagsIN23QTreeWidgetItemIterator12IteratorFlagEEC2ES1_(ptr noundef align 4 dereferenceable_or_null(4) %0, i32 noundef %1) unnamed_addr #6 comdat align 2 {
  %3 = alloca ptr, align 8
  %4 = alloca i32, align 4
  store ptr %0, ptr %3, align 8
  store i32 %1, ptr %4, align 4
  %5 = load ptr, ptr %3, align 8
  %6 = getelementptr inbounds nuw %class.QFlags.18, ptr %5, i32 0, i32 0
  %7 = load i32, ptr %4, align 4
  store i32 %7, ptr %6, align 4
  ret void
}

; Function Attrs: mustprogress null_pointer_is_valid sspstrong uwtable
define void @_ZN22SimpleStatisticsDialog7tapDrawEPv(ptr noundef %0) #3 align 2 personality ptr @__gxx_personality_v0 {
  %2 = alloca ptr, align 8
  %3 = alloca ptr, align 8
  %4 = alloca ptr, align 8
  %5 = alloca i32, align 4
  %6 = alloca %class.QTreeWidgetItemIterator, align 8
  %7 = alloca %class.QFlags.18, align 4
  %8 = alloca ptr, align 8
  %9 = alloca i32, align 4
  %10 = alloca ptr, align 8
  %11 = alloca i32, align 4
  store ptr %0, ptr %2, align 8
  call void @llvm.lifetime.start.p0(i64 8, ptr %3) #2
  %12 = load ptr, ptr %2, align 8
  store ptr %12, ptr %3, align 8
  call void @llvm.lifetime.start.p0(i64 8, ptr %4) #2
  %13 = load ptr, ptr %3, align 8
  %14 = getelementptr inbounds nuw %struct._stat_data_t, ptr %13, i32 0, i32 1
  %15 = load ptr, ptr %14, align 8
  store ptr %15, ptr %4, align 8
  %16 = load ptr, ptr %4, align 8
  %17 = icmp ne ptr %16, null
  br i1 %17, label %19, label %18

18:                                               ; preds = %1
  store i32 1, ptr %5, align 4
  br label %77

19:                                               ; preds = %1
  %20 = load ptr, ptr %4, align 8
  %21 = load ptr, ptr %3, align 8
  call void @_ZN22SimpleStatisticsDialog14addMissingRowsEP12_stat_data_t(ptr noundef align 8 dereferenceable_or_null(240) %20, ptr noundef %21)
  call void @llvm.lifetime.start.p0(i64 24, ptr %6) #2
  %22 = load ptr, ptr %4, align 8
  %23 = call noundef ptr @_ZN18TapParameterDialog15statsTreeWidgetEv(ptr noundef align 8 dereferenceable_or_null(232) %22)
  call void @_ZN6QFlagsIN23QTreeWidgetItemIterator12IteratorFlagEEC2ES1_(ptr noundef align 4 dereferenceable_or_null(4) %7, i32 noundef 0) #2
  %24 = getelementptr inbounds nuw %class.QFlags.18, ptr %7, i32 0, i32 0
  %25 = load i32, ptr %24, align 4
  call void @_ZN23QTreeWidgetItemIteratorC1EP11QTreeWidget6QFlagsINS_12IteratorFlagEE(ptr noundef align 8 dereferenceable_or_null(20) %6, ptr noundef %23, i32 %25)
  br label %26

26:                                               ; preds = %51, %19
  %27 = invoke noundef ptr @_ZNK23QTreeWidgetItemIteratordeEv(ptr noundef align 8 dereferenceable_or_null(20) %6)
          to label %28 unwind label %41

28:                                               ; preds = %26
  %29 = icmp ne ptr %27, null
  br i1 %29, label %30, label %52

30:                                               ; preds = %28
  %31 = invoke noundef ptr @_ZNK23QTreeWidgetItemIteratordeEv(ptr noundef align 8 dereferenceable_or_null(20) %6)
          to label %32 unwind label %41

32:                                               ; preds = %30
  %33 = invoke noundef i32 @_ZNK15QTreeWidgetItem4typeEv(ptr noundef align 8 dereferenceable_or_null(92) %31)
          to label %34 unwind label %41

34:                                               ; preds = %32
  %35 = icmp eq i32 %33, 1000
  br i1 %35, label %36, label %49

36:                                               ; preds = %34
  call void @llvm.lifetime.start.p0(i64 8, ptr %10) #2
  %37 = invoke noundef ptr @_ZNK23QTreeWidgetItemIteratordeEv(ptr noundef align 8 dereferenceable_or_null(20) %6)
          to label %38 unwind label %45

38:                                               ; preds = %36
  store ptr %37, ptr %10, align 8
  %39 = load ptr, ptr %10, align 8
  invoke void @_ZN30SimpleStatisticsTreeWidgetItem4drawEv(ptr noundef align 8 dereferenceable_or_null(112) %39)
          to label %40 unwind label %45

40:                                               ; preds = %38
  call void @llvm.lifetime.end.p0(i64 8, ptr %10) #2
  br label %49

41:                                               ; preds = %49, %32, %30, %26
  %42 = landingpad { ptr, i32 }
          cleanup
  %43 = extractvalue { ptr, i32 } %42, 0
  store ptr %43, ptr %8, align 8
  %44 = extractvalue { ptr, i32 } %42, 1
  store i32 %44, ptr %9, align 4
  br label %80

45:                                               ; preds = %38, %36
  %46 = landingpad { ptr, i32 }
          cleanup
  %47 = extractvalue { ptr, i32 } %46, 0
  store ptr %47, ptr %8, align 8
  %48 = extractvalue { ptr, i32 } %46, 1
  store i32 %48, ptr %9, align 4
  call void @llvm.lifetime.end.p0(i64 8, ptr %10) #2
  br label %80

49:                                               ; preds = %40, %34
  %50 = invoke noundef align 8 dereferenceable(20) ptr @_ZN23QTreeWidgetItemIteratorppEv(ptr noundef align 8 dereferenceable_or_null(20) %6)
          to label %51 unwind label %41

51:                                               ; preds = %49
  br label %26, !llvm.loop !14

52:                                               ; preds = %28
  call void @llvm.lifetime.start.p0(i64 4, ptr %11) #2
  store i32 0, ptr %11, align 4
  br label %53

53:                                               ; preds = %73, %52
  %54 = load i32, ptr %11, align 4
  %55 = load ptr, ptr %4, align 8
  %56 = invoke noundef ptr @_ZN18TapParameterDialog15statsTreeWidgetEv(ptr noundef align 8 dereferenceable_or_null(232) %55)
          to label %57 unwind label %63

57:                                               ; preds = %53
  %58 = invoke noundef i32 @_ZNK11QTreeWidget11columnCountEv(ptr noundef align 8 dereferenceable_or_null(40) %56)
          to label %59 unwind label %63

59:                                               ; preds = %57
  %60 = sub i32 %58, 1
  %61 = icmp slt i32 %54, %60
  br i1 %61, label %67, label %62

62:                                               ; preds = %59
  store i32 4, ptr %5, align 4
  call void @llvm.lifetime.end.p0(i64 4, ptr %11) #2
  br label %76

63:                                               ; preds = %70, %67, %57, %53
  %64 = landingpad { ptr, i32 }
          cleanup
  %65 = extractvalue { ptr, i32 } %64, 0
  store ptr %65, ptr %8, align 8
  %66 = extractvalue { ptr, i32 } %64, 1
  store i32 %66, ptr %9, align 4
  call void @llvm.lifetime.end.p0(i64 4, ptr %11) #2
  br label %80

67:                                               ; preds = %59
  %68 = load ptr, ptr %4, align 8
  %69 = invoke noundef ptr @_ZN18TapParameterDialog15statsTreeWidgetEv(ptr noundef align 8 dereferenceable_or_null(232) %68)
          to label %70 unwind label %63

70:                                               ; preds = %67
  %71 = load i32, ptr %11, align 4
  invoke void @_ZN9QTreeView22resizeColumnToContentsEi(ptr noundef align 8 dereferenceable_or_null(40) %69, i32 noundef %71)
          to label %72 unwind label %63

72:                                               ; preds = %70
  br label %73

73:                                               ; preds = %72
  %74 = load i32, ptr %11, align 4
  %75 = add i32 %74, 1
  store i32 %75, ptr %11, align 4
  br label %53, !llvm.loop !15

76:                                               ; preds = %62
  call void @_ZN23QTreeWidgetItemIteratorD1Ev(ptr noundef align 8 dereferenceable_or_null(20) %6) #2
  call void @llvm.lifetime.end.p0(i64 24, ptr %6) #2
  store i32 0, ptr %5, align 4
  br label %77

77:                                               ; preds = %76, %18
  call void @llvm.lifetime.end.p0(i64 8, ptr %4) #2
  call void @llvm.lifetime.end.p0(i64 8, ptr %3) #2
  %78 = load i32, ptr %5, align 4
  switch i32 %78, label %86 [
    i32 0, label %79
    i32 1, label %79
  ]

79:                                               ; preds = %77, %77
  ret void

80:                                               ; preds = %63, %45, %41
  call void @_ZN23QTreeWidgetItemIteratorD1Ev(ptr noundef align 8 dereferenceable_or_null(20) %6) #2
  call void @llvm.lifetime.end.p0(i64 24, ptr %6) #2
  call void @llvm.lifetime.end.p0(i64 8, ptr %4) #2
  call void @llvm.lifetime.end.p0(i64 8, ptr %3) #2
  br label %81

81:                                               ; preds = %80
  %82 = load ptr, ptr %8, align 8
  %83 = load i32, ptr %9, align 4
  %84 = insertvalue { ptr, i32 } poison, ptr %82, 0
  %85 = insertvalue { ptr, i32 } %84, i32 %83, 1
  resume { ptr, i32 } %85

86:                                               ; preds = %77
  unreachable
}