; Function Attrs: mustprogress null_pointer_is_valid sspstrong uwtable
define void @_ZN22SimpleStatisticsDialog7tapDrawEPv(ptr noundef readonly captures(none) %0) #2 align 2 personality ptr @__gxx_personality_v0 {
  %2 = alloca %class.QTreeWidgetItemIterator, align 8
  %3 = getelementptr inbounds nuw i8, ptr %0, i64 8
  %4 = load ptr, ptr %3, align 8
  %.not = icmp eq ptr %4, null
  br i1 %.not, label %35, label %5

5:                                                ; preds = %1
  tail call void @_ZN22SimpleStatisticsDialog14addMissingRowsEP12_stat_data_t(ptr noundef nonnull align 8 dereferenceable_or_null(240) %4, ptr noundef %0)
  call void @llvm.lifetime.start.p0(i64 24, ptr nonnull %2) #26
  %6 = tail call noundef ptr @_ZN18TapParameterDialog15statsTreeWidgetEv(ptr noundef nonnull align 8 dereferenceable_or_null(232) %4)
  call void @_ZN23QTreeWidgetItemIteratorC1EP11QTreeWidget6QFlagsINS_12IteratorFlagEE(ptr noundef nonnull align 8 dereferenceable_or_null(20) %2, ptr noundef %6, i32 0)
  %7 = getelementptr inbounds nuw i8, ptr %2, i64 8
  br label %8

8:                                                ; preds = %19, %5
  %9 = load ptr, ptr %7, align 8
  %.not16 = icmp eq ptr %9, null
  br i1 %.not16, label %.preheader, label %10

10:                                               ; preds = %8
  %11 = getelementptr inbounds nuw i8, ptr %9, i64 8
  %12 = load i32, ptr %11, align 8
  %13 = icmp eq i32 %12, 1000
  br i1 %13, label %14, label %19

14:                                               ; preds = %10
  invoke void @_ZN30SimpleStatisticsTreeWidgetItem4drawEv(ptr noundef nonnull align 8 dereferenceable_or_null(112) %9)
          to label %19 unwind label %17

15:                                               ; preds = %19
  %16 = landingpad { ptr, i32 }
          cleanup
  br label %36

17:                                               ; preds = %14
  %18 = landingpad { ptr, i32 }
          cleanup
  br label %36

19:                                               ; preds = %14, %10
  %20 = invoke noundef align 8 dereferenceable(20) ptr @_ZN23QTreeWidgetItemIteratorppEv(ptr noundef nonnull align 8 dereferenceable_or_null(20) %2)
          to label %8 unwind label %15, !llvm.loop !15

.preheader:                                       ; preds = %8, %33
  %.0 = phi i32 [ %34, %33 ], [ 0, %8 ]
  %21 = invoke noundef ptr @_ZN18TapParameterDialog15statsTreeWidgetEv(ptr noundef nonnull align 8 dereferenceable_or_null(232) %4)
          to label %22 unwind label %28

22:                                               ; preds = %.preheader
  %23 = invoke noundef i32 @_ZNK11QTreeWidget11columnCountEv(ptr noundef align 8 dereferenceable_or_null(40) %21)
          to label %24 unwind label %28

24:                                               ; preds = %22
  %25 = add i32 %23, -1
  %26 = icmp slt i32 %.0, %25
  br i1 %26, label %30, label %27

27:                                               ; preds = %24
  call void @_ZN23QTreeWidgetItemIteratorD1Ev(ptr noundef nonnull align 8 dereferenceable_or_null(20) %2) #26
  call void @llvm.lifetime.end.p0(i64 24, ptr nonnull %2) #26
  br label %35

28:                                               ; preds = %32, %30, %22, %.preheader
  %29 = landingpad { ptr, i32 }
          cleanup
  br label %36

30:                                               ; preds = %24
  %31 = invoke noundef ptr @_ZN18TapParameterDialog15statsTreeWidgetEv(ptr noundef nonnull align 8 dereferenceable_or_null(232) %4)
          to label %32 unwind label %28

32:                                               ; preds = %30
  invoke void @_ZN9QTreeView22resizeColumnToContentsEi(ptr noundef align 8 dereferenceable_or_null(40) %31, i32 noundef %.0)
          to label %33 unwind label %28

33:                                               ; preds = %32
  %34 = add nuw nsw i32 %.0, 1
  br label %.preheader, !llvm.loop !16

35:                                               ; preds = %1, %27
  ret void

36:                                               ; preds = %28, %17, %15
  %.pn = phi { ptr, i32 } [ %16, %15 ], [ %18, %17 ], [ %29, %28 ]
  call void @_ZN23QTreeWidgetItemIteratorD1Ev(ptr noundef nonnull align 8 dereferenceable_or_null(20) %2) #26
  call void @llvm.lifetime.end.p0(i64 24, ptr nonnull %2) #26
  resume { ptr, i32 } %.pn
}